target datalayout = "e-m:e-p270:32:32-p271:32:32-p272:64:64-i64:64-i128:128-f80:128-n8:16:32:64-S128"
target triple = "x86_64-pc-linux-gnu"

%"class.net::QuicTime" = type { i64 }
%"class.net::QuicFramer" = type { ptr, %"class.std::__cxx11::basic_string", ptr, ptr, i32, %"class.std::unordered_set", %"class.std::unordered_map", i64, %"class.std::unordered_map", i64, i8, i64, i32, i32, %"class.std::vector", %"class.std::unique_ptr", %"class.std::unique_ptr", i8, i8, i8, [3 x %"class.std::unique_ptr.23"], i32, i8, %"class.net::QuicTime", %"class.net::QuicTime::Delta", %"struct.std::array" }
%"class.std::__cxx11::basic_string" = type { %"struct.std::__cxx11::basic_string<char>::_Alloc_hider", i64, %union.anon }
%"struct.std::__cxx11::basic_string<char>::_Alloc_hider" = type { ptr }
%union.anon = type { i64, [8 x i8] }
%"class.std::unordered_set" = type { %"class.std::_Hashtable" }
%"class.std::_Hashtable" = type { ptr, i64, %"struct.std::__detail::_Hash_node_base", i64, %"struct.std::__detail::_Prime_rehash_policy", ptr }
%"struct.std::__detail::_Hash_node_base" = type { ptr }
%"struct.std::__detail::_Prime_rehash_policy" = type { float, i64 }
%"class.std::unordered_map" = type { %"class.std::_Hashtable.5" }
%"class.std::_Hashtable.5" = type { ptr, i64, %"struct.std::__detail::_Hash_node_base", i64, %"struct.std::__detail::_Prime_rehash_policy", ptr }
%"class.std::vector" = type { %"struct.std::_Vector_base" }
%"struct.std::_Vector_base" = type { %"struct.std::_Vector_base<net::QuicVersion, std::allocator<net::QuicVersion>>::_Vector_impl" }
%"struct.std::_Vector_base<net::QuicVersion, std::allocator<net::QuicVersion>>::_Vector_impl" = type { %"struct.std::_Vector_base<net::QuicVersion, std::allocator<net::QuicVersion>>::_Vector_impl_data" }
%"struct.std::_Vector_base<net::QuicVersion, std::allocator<net::QuicVersion>>::_Vector_impl_data" = type { ptr, ptr, ptr }
%"class.std::unique_ptr" = type { %"struct.std::__uniq_ptr_data" }
%"struct.std::__uniq_ptr_data" = type { %"class.std::__uniq_ptr_impl" }
%"class.std::__uniq_ptr_impl" = type { %"class.std::tuple" }
%"class.std::tuple" = type { %"struct.std::_Tuple_impl" }
%"struct.std::_Tuple_impl" = type { %"struct.std::_Head_base.22" }
%"struct.std::_Head_base.22" = type { ptr }
%"class.std::unique_ptr.23" = type { %"struct.std::__uniq_ptr_data.24" }
%"struct.std::__uniq_ptr_data.24" = type { %"class.std::__uniq_ptr_impl.25" }
%"class.std::__uniq_ptr_impl.25" = type { %"class.std::tuple.26" }
%"class.std::tuple.26" = type { %"struct.std::_Tuple_impl.27" }
%"struct.std::_Tuple_impl.27" = type { %"struct.std::_Head_base.30" }
%"struct.std::_Head_base.30" = type { ptr }
%"class.net::QuicTime::Delta" = type { %"class.base::TimeDelta", i64 }
%"class.base::TimeDelta" = type { i64 }
%"struct.std::array" = type { [32 x i8] }
%"struct.std::__detail::_Node_iterator_base" = type { ptr }
%"struct.std::pair" = type <{ %"struct.std::__detail::_Node_iterator", i8, [7 x i8] }>
%"struct.std::__detail::_Node_iterator" = type { %"struct.std::__detail::_Node_iterator_base" }
%"struct.std::__detail::_Identity" = type { i8 }
%"struct.std::__detail::_AllocNode" = type { ptr }

; Function Attrs: mustprogress nounwind uwtable
define linkonce_odr noundef nonnull align 1 dereferenceable(1) ptr @_ZNSt10_HashtableIhhSaIhENSt8__detail9_IdentityESt8equal_toIhESt4hashIhENS1_18_Mod_range_hashingENS1_20_Default_ranged_hashENS1_20_Prime_rehash_policyENS1_17_Hashtable_traitsILb0ELb1ELb1EEEE14_S_forward_keyERKh(ptr noundef nonnull align 1 dereferenceable(1) %0) #1 comdat align 2 {
  %2 = alloca ptr, align 8
  store ptr %0, ptr %2, align 8, !tbaa !98
  %3 = load ptr, ptr %2, align 8, !tbaa !98
  ret ptr %3
}

; Function Attrs: mustprogress nounwind uwtable
define linkonce_odr noundef nonnull align 1 dereferenceable(1) ptr @_ZNKSt8__detail9_IdentityclIRKhEEOT_S5_(ptr noundef nonnull align 1 dereferenceable(1) %0, ptr noundef nonnull align 1 dereferenceable(1) %1) #1 comdat align 2 {
  %3 = alloca ptr, align 8
  %4 = alloca ptr, align 8
  store ptr %0, ptr %3, align 8, !tbaa !693
  store ptr %1, ptr %4, align 8, !tbaa !98
  %5 = load ptr, ptr %4, align 8, !tbaa !98
  ret ptr %5
}

; Function Attrs: mustprogress uwtable
define linkonce_odr { ptr, i8 } @_ZNSt10_HashtableIhhSaIhENSt8__detail9_IdentityESt8equal_toIhESt4hashIhENS1_18_Mod_range_hashingENS1_20_Default_ranged_hashENS1_20_Prime_rehash_policyENS1_17_Hashtable_traitsILb0ELb1ELb1EEEE9_M_insertIRKhNS1_10_AllocNodeISaINS1_10_Hash_nodeIhLb0EEEEEEEESt4pairINS1_14_Node_iteratorIhLb1ELb0EEEbEOT_RKT0_St17integral_constantIbLb1EE(ptr noundef nonnull align 8 dereferenceable(56) %0, ptr noundef nonnull align 1 dereferenceable(1) %1, ptr noundef nonnull align 8 dereferenceable(8) %2) #0 comdat align 2 {
  %4 = alloca %"struct.std::pair", align 8
  %5 = alloca ptr, align 8
  %6 = alloca ptr, align 8
  %7 = alloca ptr, align 8
  %8 = alloca %"struct.std::__detail::_Identity", align 1
  %9 = alloca { ptr, i8 }, align 8
  store ptr %0, ptr %5, align 8, !tbaa !379
  store ptr %1, ptr %6, align 8, !tbaa !98
  store ptr %2, ptr %7, align 8, !tbaa !740
  %10 = load ptr, ptr %5, align 8
  call void @llvm.lifetime.start.p0(i64 1, ptr %8) #17
  %11 = load ptr, ptr %6, align 8, !tbaa !98
  %12 = call noundef nonnull align 1 dereferenceable(1) ptr @_ZNKSt8__detail9_IdentityclIRKhEEOT_S5_(ptr noundef nonnull align 1 dereferenceable(1) %8, ptr noundef nonnull align 1 dereferenceable(1) %11) #17
  %13 = call noundef nonnull align 1 dereferenceable(1) ptr @_ZNSt10_HashtableIhhSaIhENSt8__detail9_IdentityESt8equal_toIhESt4hashIhENS1_18_Mod_range_hashingENS1_20_Default_ranged_hashENS1_20_Prime_rehash_policyENS1_17_Hashtable_traitsILb0ELb1ELb1EEEE14_S_forward_keyERKh(ptr noundef nonnull align 1 dereferenceable(1) %12)
  %14 = load ptr, ptr %6, align 8, !tbaa !98
  %15 = load ptr, ptr %7, align 8, !tbaa !740
  %16 = call { ptr, i8 } @_ZNSt10_HashtableIhhSaIhENSt8__detail9_IdentityESt8equal_toIhESt4hashIhENS1_18_Mod_range_hashingENS1_20_Default_ranged_hashENS1_20_Prime_rehash_policyENS1_17_Hashtable_traitsILb0ELb1ELb1EEEE16_M_insert_uniqueIRKhSF_NS1_10_AllocNodeISaINS1_10_Hash_nodeIhLb0EEEEEEEESt4pairINS1_14_Node_iteratorIhLb1ELb0EEEbEOT_OT0_RKT1_(ptr noundef nonnull align 8 dereferenceable(56) %10, ptr noundef nonnull align 1 dereferenceable(1) %13, ptr noundef nonnull align 1 dereferenceable(1) %14, ptr noundef nonnull align 8 dereferenceable(8) %15)
  store { ptr, i8 } %16, ptr %9, align 8
  call void @llvm.memcpy.p0.p0.i64(ptr align 8 %4, ptr align 8 %9, i64 9, i1 false)
  call void @llvm.lifetime.end.p0(i64 1, ptr %8) #17
  %17 = load { ptr, i8 }, ptr %4, align 8
  ret { ptr, i8 } %17
}

; Function Attrs: mustprogress nounwind uwtable
define linkonce_odr void @_ZNSt8__detail10_AllocNodeISaINS_10_Hash_nodeIhLb0EEEEEC2ERNS_16_Hashtable_allocIS3_EE(ptr noundef nonnull align 8 dereferenceable(8) %0, ptr noundef nonnull align 1 dereferenceable(1) %1) unnamed_addr #1 comdat align 2 {
  %3 = alloca ptr, align 8
  %4 = alloca ptr, align 8
  store ptr %0, ptr %3, align 8, !tbaa !740
  store ptr %1, ptr %4, align 8, !tbaa !387
  %5 = load ptr, ptr %3, align 8
  %6 = getelementptr inbounds nuw %"struct.std::__detail::_AllocNode", ptr %5, i32 0, i32 0
  %7 = load ptr, ptr %4, align 8, !tbaa !387
  store ptr %7, ptr %6, align 8, !tbaa !387
  ret void
}

; Function Attrs: mustprogress nounwind uwtable
define linkonce_odr noundef nonnull align 8 dereferenceable(56) ptr @_ZNSt8__detail12_Insert_baseIhhSaIhENS_9_IdentityESt8equal_toIhESt4hashIhENS_18_Mod_range_hashingENS_20_Default_ranged_hashENS_20_Prime_rehash_policyENS_17_Hashtable_traitsILb0ELb1ELb1EEEE20_M_conjure_hashtableEv(ptr noundef nonnull align 1 dereferenceable(1) %0) #1 comdat align 2 {
  %2 = alloca ptr, align 8
  store ptr %0, ptr %2, align 8, !tbaa !738
  %3 = load ptr, ptr %2, align 8
  ret ptr %3
}

; Function Attrs: mustprogress uwtable
define linkonce_odr noundef i64 @_ZNSt10_HashtableIhSt4pairIKhmESaIS2_ENSt8__detail10_Select1stESt8equal_toIhESt4hashIhENS4_18_Mod_range_hashingENS4_20_Default_ranged_hashENS4_20_Prime_rehash_policyENS4_17_Hashtable_traitsILb0ELb0ELb1EEEE5eraseERS1_(ptr noundef nonnull align 8 dereferenceable(56) %0, ptr noundef nonnull align 1 dereferenceable(1) %1) #0 comdat align 2 {
  %3 = alloca ptr, align 8
  %4 = alloca ptr, align 8
  store ptr %0, ptr %3, align 8, !tbaa !408
  store ptr %1, ptr %4, align 8, !tbaa !98
  %5 = load ptr, ptr %3, align 8
  %6 = load ptr, ptr %4, align 8, !tbaa !98
  %7 = call noundef i64 @_ZNSt10_HashtableIhSt4pairIKhmESaIS2_ENSt8__detail10_Select1stESt8equal_toIhESt4hashIhENS4_18_Mod_range_hashingENS4_20_Default_ranged_hashENS4_20_Prime_rehash_policyENS4_17_Hashtable_traitsILb0ELb0ELb1EEEE8_M_eraseESt17integral_constantIbLb1EERS1_(ptr noundef nonnull align 8 dereferenceable(56) %5, ptr noundef nonnull align 1 dereferenceable(1) %6)
  ret i64 %7
}

; Function Attrs: mustprogress uwtable
define linkonce_odr { ptr, i8 } @_ZNSt8__detail12_Insert_baseIhhSaIhENS_9_IdentityESt8equal_toIhESt4hashIhENS_18_Mod_range_hashingENS_20_Default_ranged_hashENS_20_Prime_rehash_policyENS_17_Hashtable_traitsILb0ELb1ELb1EEEE6insertERKh(ptr noundef nonnull align 1 dereferenceable(1) %0, ptr noundef nonnull align 1 dereferenceable(1) %1) #0 comdat align 2 {
  %3 = alloca %"struct.std::pair", align 8
  %4 = alloca ptr, align 8
  %5 = alloca ptr, align 8
  %6 = alloca ptr, align 8
  %7 = alloca %"struct.std::__detail::_AllocNode", align 8
  %8 = alloca { ptr, i8 }, align 8
  store ptr %0, ptr %4, align 8, !tbaa !738
  store ptr %1, ptr %5, align 8, !tbaa !98
  %9 = load ptr, ptr %4, align 8
  call void @llvm.lifetime.start.p0(i64 8, ptr %6) #17
  %10 = call noundef nonnull align 8 dereferenceable(56) ptr @_ZNSt8__detail12_Insert_baseIhhSaIhENS_9_IdentityESt8equal_toIhESt4hashIhENS_18_Mod_range_hashingENS_20_Default_ranged_hashENS_20_Prime_rehash_policyENS_17_Hashtable_traitsILb0ELb1ELb1EEEE20_M_conjure_hashtableEv(ptr noundef nonnull align 1 dereferenceable(1) %9)
  store ptr %10, ptr %6, align 8, !tbaa !379
  call void @llvm.lifetime.start.p0(i64 8, ptr %7) #17
  %11 = load ptr, ptr %6, align 8, !tbaa !379
  call void @_ZNSt8__detail10_AllocNodeISaINS_10_Hash_nodeIhLb0EEEEEC2ERNS_16_Hashtable_allocIS3_EE(ptr noundef nonnull align 8 dereferenceable(8) %7, ptr noundef nonnull align 1 dereferenceable(1) %11)
  %12 = load ptr, ptr %6, align 8, !tbaa !379
  %13 = load ptr, ptr %5, align 8, !tbaa !98
  %14 = call { ptr, i8 } @_ZNSt10_HashtableIhhSaIhENSt8__detail9_IdentityESt8equal_toIhESt4hashIhENS1_18_Mod_range_hashingENS1_20_Default_ranged_hashENS1_20_Prime_rehash_policyENS1_17_Hashtable_traitsILb0ELb1ELb1EEEE9_M_insertIRKhNS1_10_AllocNodeISaINS1_10_Hash_nodeIhLb0EEEEEEEESt4pairINS1_14_Node_iteratorIhLb1ELb0EEEbEOT_RKT0_St17integral_constantIbLb1EE(ptr noundef nonnull align 8 dereferenceable(56) %12, ptr noundef nonnull align 1 dereferenceable(1) %13, ptr noundef nonnull align 8 dereferenceable(8) %7)
  store { ptr, i8 } %14, ptr %8, align 8
  call void @llvm.memcpy.p0.p0.i64(ptr align 8 %3, ptr align 8 %8, i64 9, i1 false)
  call void @llvm.lifetime.end.p0(i64 8, ptr %7) #17
  call void @llvm.lifetime.end.p0(i64 8, ptr %6) #17
  %15 = load { ptr, i8 }, ptr %3, align 8
  ret { ptr, i8 } %15
}

; Function Attrs: mustprogress uwtable
define linkonce_odr noundef i64 @_ZNSt13unordered_mapIhmSt4hashIhESt8equal_toIhESaISt4pairIKhmEEE5eraseERS5_(ptr noundef nonnull align 8 dereferenceable(56) %0, ptr noundef nonnull align 1 dereferenceable(1) %1) #0 comdat align 2 {
  %3 = alloca ptr, align 8
  %4 = alloca ptr, align 8
  store ptr %0, ptr %3, align 8, !tbaa !70
  store ptr %1, ptr %4, align 8, !tbaa !98
  %5 = load ptr, ptr %3, align 8
  %6 = getelementptr inbounds nuw %"class.std::unordered_map", ptr %5, i32 0, i32 0
  %7 = load ptr, ptr %4, align 8, !tbaa !98
  %8 = call noundef i64 @_ZNSt10_HashtableIhSt4pairIKhmESaIS2_ENSt8__detail10_Select1stESt8equal_toIhESt4hashIhENS4_18_Mod_range_hashingENS4_20_Default_ranged_hashENS4_20_Prime_rehash_policyENS4_17_Hashtable_traitsILb0ELb0ELb1EEEE5eraseERS1_(ptr noundef nonnull align 8 dereferenceable(56) %6, ptr noundef nonnull align 1 dereferenceable(1) %7)
  ret i64 %8
}

; Function Attrs: mustprogress uwtable
define linkonce_odr { ptr, i8 } @_ZNSt13unordered_setIhSt4hashIhESt8equal_toIhESaIhEE6insertERKh(ptr noundef nonnull align 8 dereferenceable(56) %0, ptr noundef nonnull align 1 dereferenceable(1) %1) #0 comdat align 2 {
  %3 = alloca %"struct.std::pair", align 8
  %4 = alloca ptr, align 8
  %5 = alloca ptr, align 8
  %6 = alloca { ptr, i8 }, align 8
  store ptr %0, ptr %4, align 8, !tbaa !68
  store ptr %1, ptr %5, align 8, !tbaa !98
  %7 = load ptr, ptr %4, align 8
  %8 = getelementptr inbounds nuw %"class.std::unordered_set", ptr %7, i32 0, i32 0
  %9 = load ptr, ptr %5, align 8, !tbaa !98
  %10 = call { ptr, i8 } @_ZNSt8__detail12_Insert_baseIhhSaIhENS_9_IdentityESt8equal_toIhESt4hashIhENS_18_Mod_range_hashingENS_20_Default_ranged_hashENS_20_Prime_rehash_policyENS_17_Hashtable_traitsILb0ELb1ELb1EEEE6insertERKh(ptr noundef nonnull align 1 dereferenceable(1) %8, ptr noundef nonnull align 1 dereferenceable(1) %9)
  store { ptr, i8 } %10, ptr %6, align 8
  call void @llvm.memcpy.p0.p0.i64(ptr align 8 %3, ptr align 8 %6, i64 9, i1 false)
  %11 = load { ptr, i8 }, ptr %3, align 8
  ret { ptr, i8 } %11
}

; Function Attrs: mustprogress uwtable
define void @_ZN3net10QuicFramer12OnPathClosedEh(ptr noundef nonnull align 8 dereferenceable(408) %0, i8 noundef zeroext %1) #0 align 2 {
  %3 = alloca ptr, align 8
  %4 = alloca i8, align 1
  %5 = alloca %"struct.std::pair", align 8
  store ptr %0, ptr %3, align 8, !tbaa !3
  store i8 %1, ptr %4, align 1, !tbaa !107
  %6 = load ptr, ptr %3, align 8
  %7 = getelementptr inbounds nuw %"class.net::QuicFramer", ptr %6, i32 0, i32 5
  %8 = call { ptr, i8 } @_ZNSt13unordered_setIhSt4hashIhESt8equal_toIhESaIhEE6insertERKh(ptr noundef nonnull align 8 dereferenceable(56) %7, ptr noundef nonnull align 1 dereferenceable(1) %4)
  %9 = getelementptr inbounds nuw { ptr, i8 }, ptr %5, i32 0, i32 0
  %10 = extractvalue { ptr, i8 } %8, 0
  store ptr %10, ptr %9, align 8
  %11 = getelementptr inbounds nuw { ptr, i8 }, ptr %5, i32 0, i32 1
  %12 = extractvalue { ptr, i8 } %8, 1
  store i8 %12, ptr %11, align 8
  %13 = getelementptr inbounds nuw %"class.net::QuicFramer", ptr %6, i32 0, i32 6
  %14 = call noundef i64 @_ZNSt13unordered_mapIhmSt4hashIhESt8equal_toIhESaISt4pairIKhmEEE5eraseERS5_(ptr noundef nonnull align 8 dereferenceable(56) %13, ptr noundef nonnull align 1 dereferenceable(1) %4)
  ret void
}