; Function Attrs: mustprogress uwtable
define void @_ZN3net10QuicFramer12OnPathClosedEh(ptr noundef nonnull align 8 dereferenceable(408) %0, i8 noundef zeroext %1) local_unnamed_addr #0 align 2 {
  %3 = alloca %"struct.std::__detail::_AllocNode", align 8
  %4 = alloca i8, align 1
  store i8 %1, ptr %4, align 1, !tbaa !14
  %5 = getelementptr inbounds nuw i8, ptr %0, i64 64
  call void @llvm.lifetime.start.p0(i64 8, ptr nonnull %3) #26
  store ptr %5, ptr %3, align 8, !tbaa !290
  %6 = call { ptr, i8 } @_ZNSt10_HashtableIhhSaIhENSt8__detail9_IdentityESt8equal_toIhESt4hashIhENS1_18_Mod_range_hashingENS1_20_Default_ranged_hashENS1_20_Prime_rehash_policyENS1_17_Hashtable_traitsILb0ELb1ELb1EEEE16_M_insert_uniqueIRKhSF_NS1_10_AllocNodeISaINS1_10_Hash_nodeIhLb0EEEEEEEESt4pairINS1_14_Node_iteratorIhLb1ELb0EEEbEOT_OT0_RKT1_(ptr noundef nonnull align 8 dereferenceable(56) %5, ptr noundef nonnull align 1 dereferenceable(1) %4, ptr noundef nonnull align 1 dereferenceable(1) %4, ptr noundef nonnull align 8 dereferenceable(8) %3)
  call void @llvm.lifetime.end.p0(i64 8, ptr nonnull %3) #26
  %7 = getelementptr inbounds nuw i8, ptr %0, i64 120
  %8 = call noundef i64 @_ZNSt10_HashtableIhSt4pairIKhmESaIS2_ENSt8__detail10_Select1stESt8equal_toIhESt4hashIhENS4_18_Mod_range_hashingENS4_20_Default_ranged_hashENS4_20_Prime_rehash_policyENS4_17_Hashtable_traitsILb0ELb0ELb1EEEE8_M_eraseESt17integral_constantIbLb1EERS1_(ptr noundef nonnull align 8 dereferenceable(56) %7, ptr noundef nonnull align 1 dereferenceable(1) %4)
  ret void
}